target datalayout = "e-m:e-p270:32:32-p271:32:32-p272:64:64-i64:64-i128:128-f80:128-n8:16:32:64-S128"
target triple = "x86_64-pc-linux-gnu"

%"struct.duckdb::roaring::ContainerCompressionState" = type { i16, i8, i16, i16, i8, ptr, ptr, [2 x ptr], [2 x ptr], [4 x %"struct.duckdb::roaring::RunContainerRLEPair"], [2 x [8 x i16]], i16, [2 x i16], [2 x ptr], ptr, [2 x [248 x i8]], [248 x i8], [2 x [8 x i8]], [8 x i8], ptr, i8, ptr }
%"struct.duckdb::roaring::RunContainerRLEPair" = type { i16, i16 }

; Function Attrs: mustprogress nounwind uwtable
define void @_ZN6duckdb7roaring25ContainerCompressionState5ResetEv(ptr noundef nonnull align 8 dereferenceable(936) %0) #2 align 2 {
  %2 = alloca ptr, align 8
  store ptr %0, ptr %2, align 8, !tbaa !331
  %3 = load ptr, ptr %2, align 8
  %4 = getelementptr inbounds nuw %"struct.duckdb::roaring::ContainerCompressionState", ptr %3, i32 0, i32 0
  store i16 0, ptr %4, align 8, !tbaa !333
  %5 = getelementptr inbounds nuw %"struct.duckdb::roaring::ContainerCompressionState", ptr %3, i32 0, i32 2
  store i16 0, ptr %5, align 4, !tbaa !336
  %6 = getelementptr inbounds nuw %"struct.duckdb::roaring::ContainerCompressionState", ptr %3, i32 0, i32 3
  store i16 0, ptr %6, align 2, !tbaa !337
  %7 = getelementptr inbounds nuw %"struct.duckdb::roaring::ContainerCompressionState", ptr %3, i32 0, i32 11
  store i16 0, ptr %7, align 8, !tbaa !341
  %8 = getelementptr inbounds nuw %"struct.duckdb::roaring::ContainerCompressionState", ptr %3, i32 0, i32 12
  %9 = getelementptr inbounds nuw [2 x i16], ptr %8, i64 0, i64 0
  store i16 0, ptr %9, align 2, !tbaa !137
  %10 = getelementptr inbounds nuw %"struct.duckdb::roaring::ContainerCompressionState", ptr %3, i32 0, i32 12
  %11 = getelementptr inbounds nuw [2 x i16], ptr %10, i64 0, i64 1
  store i16 0, ptr %11, align 2, !tbaa !137
  %12 = getelementptr inbounds nuw %"struct.duckdb::roaring::ContainerCompressionState", ptr %3, i32 0, i32 20
  store i8 0, ptr %12, align 8, !tbaa !340
  %13 = getelementptr inbounds nuw %"struct.duckdb::roaring::ContainerCompressionState", ptr %3, i32 0, i32 4
  store i8 0, ptr %13, align 8, !tbaa !338
  %14 = getelementptr inbounds nuw %"struct.duckdb::roaring::ContainerCompressionState", ptr %3, i32 0, i32 10
  %15 = getelementptr inbounds nuw [2 x [8 x i16]], ptr %14, i64 0, i64 1
  %16 = getelementptr inbounds [8 x i16], ptr %15, i64 0, i64 0
  %17 = getelementptr inbounds nuw %"struct.duckdb::roaring::ContainerCompressionState", ptr %3, i32 0, i32 8
  %18 = getelementptr inbounds nuw [2 x ptr], ptr %17, i64 0, i64 1
  store ptr %16, ptr %18, align 8, !tbaa !342
  %19 = getelementptr inbounds nuw %"struct.duckdb::roaring::ContainerCompressionState", ptr %3, i32 0, i32 10
  %20 = getelementptr inbounds nuw [2 x [8 x i16]], ptr %19, i64 0, i64 0
  %21 = getelementptr inbounds [8 x i16], ptr %20, i64 0, i64 0
  %22 = getelementptr inbounds nuw %"struct.duckdb::roaring::ContainerCompressionState", ptr %3, i32 0, i32 8
  %23 = getelementptr inbounds nuw [2 x ptr], ptr %22, i64 0, i64 0
  store ptr %21, ptr %23, align 8, !tbaa !342
  %24 = getelementptr inbounds nuw %"struct.duckdb::roaring::ContainerCompressionState", ptr %3, i32 0, i32 9
  %25 = getelementptr inbounds [4 x %"struct.duckdb::roaring::RunContainerRLEPair"], ptr %24, i64 0, i64 0
  %26 = getelementptr inbounds nuw %"struct.duckdb::roaring::ContainerCompressionState", ptr %3, i32 0, i32 5
  store ptr %25, ptr %26, align 8, !tbaa !344
  %27 = getelementptr inbounds nuw %"struct.duckdb::roaring::ContainerCompressionState", ptr %3, i32 0, i32 15
  %28 = getelementptr inbounds nuw [2 x [248 x i8]], ptr %27, i64 0, i64 1
  %29 = getelementptr inbounds [248 x i8], ptr %28, i64 0, i64 0
  %30 = getelementptr inbounds nuw %"struct.duckdb::roaring::ContainerCompressionState", ptr %3, i32 0, i32 7
  %31 = getelementptr inbounds nuw [2 x ptr], ptr %30, i64 0, i64 1
  store ptr %29, ptr %31, align 8, !tbaa !18
  %32 = getelementptr inbounds nuw %"struct.duckdb::roaring::ContainerCompressionState", ptr %3, i32 0, i32 15
  %33 = getelementptr inbounds nuw [2 x [248 x i8]], ptr %32, i64 0, i64 0
  %34 = getelementptr inbounds [248 x i8], ptr %33, i64 0, i64 0
  %35 = getelementptr inbounds nuw %"struct.duckdb::roaring::ContainerCompressionState", ptr %3, i32 0, i32 7
  %36 = getelementptr inbounds nuw [2 x ptr], ptr %35, i64 0, i64 0
  store ptr %34, ptr %36, align 8, !tbaa !18
  %37 = getelementptr inbounds nuw %"struct.duckdb::roaring::ContainerCompressionState", ptr %3, i32 0, i32 16
  %38 = getelementptr inbounds [248 x i8], ptr %37, i64 0, i64 0
  %39 = getelementptr inbounds nuw %"struct.duckdb::roaring::ContainerCompressionState", ptr %3, i32 0, i32 6
  store ptr %38, ptr %39, align 8, !tbaa !345
  %40 = getelementptr inbounds nuw %"struct.duckdb::roaring::ContainerCompressionState", ptr %3, i32 0, i32 17
  %41 = getelementptr inbounds nuw [2 x [8 x i8]], ptr %40, i64 0, i64 1
  %42 = getelementptr inbounds [8 x i8], ptr %41, i64 0, i64 0
  %43 = getelementptr inbounds nuw %"struct.duckdb::roaring::ContainerCompressionState", ptr %3, i32 0, i32 13
  %44 = getelementptr inbounds nuw [2 x ptr], ptr %43, i64 0, i64 1
  store ptr %42, ptr %44, align 8, !tbaa !18
  %45 = getelementptr inbounds nuw %"struct.duckdb::roaring::ContainerCompressionState", ptr %3, i32 0, i32 17
  %46 = getelementptr inbounds nuw [2 x [8 x i8]], ptr %45, i64 0, i64 0
  %47 = getelementptr inbounds [8 x i8], ptr %46, i64 0, i64 0
  %48 = getelementptr inbounds nuw %"struct.duckdb::roaring::ContainerCompressionState", ptr %3, i32 0, i32 13
  %49 = getelementptr inbounds nuw [2 x ptr], ptr %48, i64 0, i64 0
  store ptr %47, ptr %49, align 8, !tbaa !18
  %50 = getelementptr inbounds nuw %"struct.duckdb::roaring::ContainerCompressionState", ptr %3, i32 0, i32 18
  %51 = getelementptr inbounds [8 x i8], ptr %50, i64 0, i64 0
  %52 = getelementptr inbounds nuw %"struct.duckdb::roaring::ContainerCompressionState", ptr %3, i32 0, i32 14
  store ptr %51, ptr %52, align 8, !tbaa !346
  %53 = getelementptr inbounds nuw %"struct.duckdb::roaring::ContainerCompressionState", ptr %3, i32 0, i32 13
  %54 = getelementptr inbounds nuw [2 x ptr], ptr %53, i64 0, i64 1
  %55 = load ptr, ptr %54, align 8, !tbaa !18
  call void @llvm.memset.p0.i64(ptr align 1 %55, i8 0, i64 8, i1 false)
  %56 = getelementptr inbounds nuw %"struct.duckdb::roaring::ContainerCompressionState", ptr %3, i32 0, i32 13
  %57 = getelementptr inbounds nuw [2 x ptr], ptr %56, i64 0, i64 0
  %58 = load ptr, ptr %57, align 8, !tbaa !18
  call void @llvm.memset.p0.i64(ptr align 1 %58, i8 0, i64 8, i1 false)
  %59 = getelementptr inbounds nuw %"struct.duckdb::roaring::ContainerCompressionState", ptr %3, i32 0, i32 14
  %60 = load ptr, ptr %59, align 8, !tbaa !346
  call void @llvm.memset.p0.i64(ptr align 1 %60, i8 0, i64 8, i1 false)
  %61 = getelementptr inbounds nuw %"struct.duckdb::roaring::ContainerCompressionState", ptr %3, i32 0, i32 19
  store ptr null, ptr %61, align 8, !tbaa !339
  ret void
}