; Function Attrs: mustprogress nofree norecurse nosync nounwind willreturn memory(argmem: write) uwtable
define void @_ZN6duckdb7roaring25ContainerCompressionState5ResetEv(ptr noundef nonnull align 8 dereferenceable(936) initializes((0, 2), (4, 9), (112, 118), (920, 921)) %0) local_unnamed_addr #6 align 2 {
  store i16 0, ptr %0, align 8, !tbaa !330
  %2 = getelementptr inbounds nuw i8, ptr %0, i64 4
  store i16 0, ptr %2, align 4, !tbaa !340
  %3 = getelementptr inbounds nuw i8, ptr %0, i64 6
  store i16 0, ptr %3, align 2, !tbaa !341
  %4 = getelementptr inbounds nuw i8, ptr %0, i64 112
  store i16 0, ptr %4, align 8, !tbaa !333
  %5 = getelementptr inbounds nuw i8, ptr %0, i64 114
  store i16 0, ptr %5, align 2, !tbaa !334
  %6 = getelementptr inbounds nuw i8, ptr %0, i64 116
  store i16 0, ptr %6, align 4, !tbaa !334
  %7 = getelementptr inbounds nuw i8, ptr %0, i64 920
  store i8 0, ptr %7, align 8, !tbaa !342
  %8 = getelementptr inbounds nuw i8, ptr %0, i64 8
  store i8 0, ptr %8, align 8, !tbaa !343
  %9 = getelementptr inbounds nuw i8, ptr %0, i64 80
  %10 = getelementptr inbounds nuw i8, ptr %0, i64 96
  %11 = getelementptr inbounds nuw i8, ptr %0, i64 48
  %12 = getelementptr inbounds nuw i8, ptr %0, i64 56
  store ptr %10, ptr %12, align 8, !tbaa !335
  store ptr %9, ptr %11, align 8, !tbaa !335
  %13 = getelementptr inbounds nuw i8, ptr %0, i64 64
  %14 = getelementptr inbounds nuw i8, ptr %0, i64 16
  store ptr %13, ptr %14, align 8, !tbaa !337
  %15 = getelementptr inbounds nuw i8, ptr %0, i64 144
  %16 = getelementptr inbounds nuw i8, ptr %0, i64 392
  %17 = getelementptr inbounds nuw i8, ptr %0, i64 32
  %18 = getelementptr inbounds nuw i8, ptr %0, i64 40
  store ptr %16, ptr %18, align 8, !tbaa !236
  store ptr %15, ptr %17, align 8, !tbaa !236
  %19 = getelementptr inbounds nuw i8, ptr %0, i64 640
  %20 = getelementptr inbounds nuw i8, ptr %0, i64 24
  store ptr %19, ptr %20, align 8, !tbaa !338
  %21 = getelementptr inbounds nuw i8, ptr %0, i64 888
  %22 = getelementptr inbounds nuw i8, ptr %0, i64 896
  %23 = getelementptr inbounds nuw i8, ptr %0, i64 120
  %24 = getelementptr inbounds nuw i8, ptr %0, i64 128
  store ptr %22, ptr %24, align 8, !tbaa !236
  store ptr %21, ptr %23, align 8, !tbaa !236
  %25 = getelementptr inbounds nuw i8, ptr %0, i64 904
  %26 = getelementptr inbounds nuw i8, ptr %0, i64 136
  store ptr %25, ptr %26, align 8, !tbaa !339
  tail call void @llvm.memset.p0.i64(ptr noundef nonnull align 8 dereferenceable(32) %21, i8 0, i64 32, i1 false)
  ret void
}